; Function Attrs: nounwind sspstrong uwtable
define internal range(i32 -5, 1) i32 @tpm_emulator_post_load(ptr noundef %opaque, i32 %version_id) #0 {
entry:
  %_now.i.i24.i = alloca %struct.timeval, align 8
  %_now.i.i10.i = alloca %struct.timeval, align 8
  %_now.i.i.i = alloca %struct.timeval, align 8
  %call.i.i = tail call ptr @object_dynamic_cast_assert(ptr noundef %opaque, ptr noundef nonnull @.str, ptr noundef nonnull @.str.2, i32 noundef 50, ptr noundef nonnull @__func__.TPM_EMULATOR) #12
  call void @llvm.lifetime.start.p0(i64 16, ptr nonnull %_now.i.i.i)
  %0 = load i32, ptr @trace_events_enabled_count, align 4
  %tobool.i.i.i = icmp ne i32 %0, 0
  %1 = load i16, ptr @_TRACE_TPM_EMULATOR_SET_STATE_BLOBS_DSTATE, align 2
  %tobool4.i.i.i = icmp ne i16 %1, 0
  %or.cond.i.i.i = select i1 %tobool.i.i.i, i1 %tobool4.i.i.i, i1 false
  br i1 %or.cond.i.i.i, label %land.lhs.true5.i.i.i, label %trace_tpm_emulator_set_state_blobs.exit.i

land.lhs.true5.i.i.i:                             ; preds = %entry
  %2 = load i32, ptr @qemu_loglevel, align 4
  %and.i.i.i.i = and i32 %2, 32768
  %cmp.i.not.i.i.i = icmp eq i32 %and.i.i.i.i, 0
  br i1 %cmp.i.not.i.i.i, label %trace_tpm_emulator_set_state_blobs.exit.i, label %if.then.i.i.i

if.then.i.i.i:                                    ; preds = %land.lhs.true5.i.i.i
  %3 = load i8, ptr @message_with_timestamp, align 1
  %tobool7.i.i.i = trunc i8 %3 to i1
  br i1 %tobool7.i.i.i, label %if.then8.i.i.i, label %if.else.i.i.i

if.then8.i.i.i:                                   ; preds = %if.then.i.i.i
  %call9.i.i.i = call i32 @gettimeofday(ptr noundef nonnull %_now.i.i.i, ptr noundef null) #12
  %call10.i.i.i = tail call i32 @qemu_get_thread_id() #12
  %4 = load i64, ptr %_now.i.i.i, align 8
  %tv_usec.i.i.i = getelementptr inbounds nuw i8, ptr %_now.i.i.i, i64 8
  %5 = load i64, ptr %tv_usec.i.i.i, align 8
  tail call void (ptr, ...) @qemu_log(ptr noundef nonnull @.str.34, i32 noundef %call10.i.i.i, i64 noundef %4, i64 noundef %5) #12
  br label %trace_tpm_emulator_set_state_blobs.exit.i

if.else.i.i.i:                                    ; preds = %if.then.i.i.i
  tail call void (ptr, ...) @qemu_log(ptr noundef nonnull @.str.35) #12
  br label %trace_tpm_emulator_set_state_blobs.exit.i

trace_tpm_emulator_set_state_blobs.exit.i:        ; preds = %if.else.i.i.i, %if.then8.i.i.i, %land.lhs.true5.i.i.i, %entry
  call void @llvm.lifetime.end.p0(i64 16, ptr nonnull %_now.i.i.i)
  %call2.i = tail call fastcc i32 @tpm_emulator_stop_tpm(ptr noundef %opaque)
  %cmp.i = icmp slt i32 %call2.i, 0
  br i1 %cmp.i, label %if.then.i, label %if.end.i

if.then.i:                                        ; preds = %trace_tpm_emulator_set_state_blobs.exit.i
  call void @llvm.lifetime.start.p0(i64 16, ptr nonnull %_now.i.i10.i)
  %6 = load i32, ptr @trace_events_enabled_count, align 4
  %tobool.i.i11.i = icmp ne i32 %6, 0
  %7 = load i16, ptr @_TRACE_TPM_EMULATOR_SET_STATE_BLOBS_ERROR_DSTATE, align 2
  %tobool4.i.i12.i = icmp ne i16 %7, 0
  %or.cond.i.i13.i = select i1 %tobool.i.i11.i, i1 %tobool4.i.i12.i, i1 false
  br i1 %or.cond.i.i13.i, label %land.lhs.true5.i.i14.i, label %trace_tpm_emulator_set_state_blobs_error.exit.i

land.lhs.true5.i.i14.i:                           ; preds = %if.then.i
  %8 = load i32, ptr @qemu_loglevel, align 4
  %and.i.i.i15.i = and i32 %8, 32768
  %cmp.i.not.i.i16.i = icmp eq i32 %and.i.i.i15.i, 0
  br i1 %cmp.i.not.i.i16.i, label %trace_tpm_emulator_set_state_blobs_error.exit.i, label %if.then.i.i17.i

if.then.i.i17.i:                                  ; preds = %land.lhs.true5.i.i14.i
  %9 = load i8, ptr @message_with_timestamp, align 1
  %tobool7.i.i18.i = trunc i8 %9 to i1
  br i1 %tobool7.i.i18.i, label %if.then8.i.i20.i, label %if.else.i.i19.i

if.then8.i.i20.i:                                 ; preds = %if.then.i.i17.i
  %call9.i.i21.i = call i32 @gettimeofday(ptr noundef nonnull %_now.i.i10.i, ptr noundef null) #12
  %call10.i.i22.i = tail call i32 @qemu_get_thread_id() #12
  %10 = load i64, ptr %_now.i.i10.i, align 8
  %tv_usec.i.i23.i = getelementptr inbounds nuw i8, ptr %_now.i.i10.i, i64 8
  %11 = load i64, ptr %tv_usec.i.i23.i, align 8
  tail call void (ptr, ...) @qemu_log(ptr noundef nonnull @.str.38, i32 noundef %call10.i.i22.i, i64 noundef %10, i64 noundef %11, ptr noundef nonnull @.str.33) #12
  br label %trace_tpm_emulator_set_state_blobs_error.exit.i

if.else.i.i19.i:                                  ; preds = %if.then.i.i17.i
  tail call void (ptr, ...) @qemu_log(ptr noundef nonnull @.str.39, ptr noundef nonnull @.str.33) #12
  br label %trace_tpm_emulator_set_state_blobs_error.exit.i

trace_tpm_emulator_set_state_blobs_error.exit.i:  ; preds = %if.else.i.i19.i, %if.then8.i.i20.i, %land.lhs.true5.i.i14.i, %if.then.i
  call void @llvm.lifetime.end.p0(i64 16, ptr nonnull %_now.i.i10.i)
  br label %return

if.end.i:                                         ; preds = %trace_tpm_emulator_set_state_blobs.exit.i
  %state_blobs1.i = getelementptr inbounds nuw i8, ptr %call.i.i, i64 248
  %permanent.i = getelementptr inbounds nuw i8, ptr %call.i.i, i64 256
  %12 = load i32, ptr %state_blobs1.i, align 8
  %call3.i = tail call fastcc i32 @tpm_emulator_set_state_blob(ptr noundef %call.i.i, i32 noundef 1, ptr noundef nonnull %permanent.i, i32 noundef %12)
  %cmp4.i = icmp slt i32 %call3.i, 0
  br i1 %cmp4.i, label %return, label %lor.lhs.false.i

lor.lhs.false.i:                                  ; preds = %if.end.i
  %volatil.i = getelementptr inbounds nuw i8, ptr %call.i.i, i64 280
  %volatil_flags.i = getelementptr inbounds nuw i8, ptr %call.i.i, i64 272
  %13 = load i32, ptr %volatil_flags.i, align 8
  %call5.i = tail call fastcc i32 @tpm_emulator_set_state_blob(ptr noundef nonnull %call.i.i, i32 noundef 2, ptr noundef nonnull %volatil.i, i32 noundef %13)
  %cmp6.i = icmp slt i32 %call5.i, 0
  br i1 %cmp6.i, label %return, label %lor.lhs.false7.i

lor.lhs.false7.i:                                 ; preds = %lor.lhs.false.i
  %savestate.i = getelementptr inbounds nuw i8, ptr %call.i.i, i64 304
  %savestate_flags.i = getelementptr inbounds nuw i8, ptr %call.i.i, i64 296
  %14 = load i32, ptr %savestate_flags.i, align 8
  %call8.i = tail call fastcc i32 @tpm_emulator_set_state_blob(ptr noundef nonnull %call.i.i, i32 noundef 3, ptr noundef nonnull %savestate.i, i32 noundef %14)
  %cmp9.i = icmp slt i32 %call8.i, 0
  br i1 %cmp9.i, label %return, label %if.end11.i

if.end11.i:                                       ; preds = %lor.lhs.false7.i
  call void @llvm.lifetime.start.p0(i64 16, ptr nonnull %_now.i.i24.i)
  %15 = load i32, ptr @trace_events_enabled_count, align 4
  %tobool.i.i25.i = icmp ne i32 %15, 0
  %16 = load i16, ptr @_TRACE_TPM_EMULATOR_SET_STATE_BLOBS_DONE_DSTATE, align 2
  %tobool4.i.i26.i = icmp ne i16 %16, 0
  %or.cond.i.i27.i = select i1 %tobool.i.i25.i, i1 %tobool4.i.i26.i, i1 false
  br i1 %or.cond.i.i27.i, label %land.lhs.true5.i.i28.i, label %if.end

land.lhs.true5.i.i28.i:                           ; preds = %if.end11.i
  %17 = load i32, ptr @qemu_loglevel, align 4
  %and.i.i.i29.i = and i32 %17, 32768
  %cmp.i.not.i.i30.i = icmp eq i32 %and.i.i.i29.i, 0
  br i1 %cmp.i.not.i.i30.i, label %if.end, label %if.then.i.i31.i

if.then.i.i31.i:                                  ; preds = %land.lhs.true5.i.i28.i
  %18 = load i8, ptr @message_with_timestamp, align 1
  %tobool7.i.i32.i = trunc i8 %18 to i1
  br i1 %tobool7.i.i32.i, label %if.then8.i.i34.i, label %if.else.i.i33.i

if.then8.i.i34.i:                                 ; preds = %if.then.i.i31.i
  %call9.i.i35.i = call i32 @gettimeofday(ptr noundef nonnull %_now.i.i24.i, ptr noundef null) #12
  %call10.i.i36.i = tail call i32 @qemu_get_thread_id() #12
  %19 = load i64, ptr %_now.i.i24.i, align 8
  %tv_usec.i.i37.i = getelementptr inbounds nuw i8, ptr %_now.i.i24.i, i64 8
  %20 = load i64, ptr %tv_usec.i.i37.i, align 8
  tail call void (ptr, ...) @qemu_log(ptr noundef nonnull @.str.46, i32 noundef %call10.i.i36.i, i64 noundef %19, i64 noundef %20) #12
  br label %if.end

if.else.i.i33.i:                                  ; preds = %if.then.i.i31.i
  tail call void (ptr, ...) @qemu_log(ptr noundef nonnull @.str.47) #12
  br label %if.end

if.end:                                           ; preds = %if.else.i.i33.i, %if.then8.i.i34.i, %land.lhs.true5.i.i28.i, %if.end11.i
  call void @llvm.lifetime.end.p0(i64 16, ptr nonnull %_now.i.i24.i)
  %call1 = tail call fastcc i32 @tpm_emulator_startup_tpm_resume(ptr noundef %opaque, i64 noundef 0, i1 noundef zeroext true)
  %cmp2 = icmp slt i32 %call1, 0
  %. = select i1 %cmp2, i32 -5, i32 0
  br label %return

return:                                           ; preds = %if.end.i, %lor.lhs.false.i, %lor.lhs.false7.i, %trace_tpm_emulator_set_state_blobs_error.exit.i, %if.end
  %retval.0 = phi i32 [ %., %if.end ], [ -5, %trace_tpm_emulator_set_state_blobs_error.exit.i ], [ -5, %lor.lhs.false7.i ], [ -5, %lor.lhs.false.i ], [ -5, %if.end.i ]
  ret i32 %retval.0
}